target datalayout = "e-m:e-p270:32:32-p271:32:32-p272:64:64-i64:64-i128:128-f80:128-n8:16:32:64-S128"
target triple = "x86_64-pc-linux-gnu"

%struct.H5ES_event_t = type { ptr, ptr, ptr, %struct.H5ES_op_info_t }
%struct.H5ES_op_info_t = type { ptr, ptr, ptr, ptr, i32, i64, i64, i64, i64 }
%struct.H5ES_wait_ctx_t = type { ptr, i64, ptr, ptr }

@H5ES_init_g = global i8 0, align 1
@H5_libterm_g = external global i8, align 1
@.str = private unnamed_addr constant [101 x i8] c"generated/home/dtcxzyw/WorkSpace/Projects/compilers/llvm-opt-benchmark/bench/hdf5/hdf5/src/H5ESint.c\00", align 1
@H5E_EVENTSET_g = external global i64, align 8
@H5E_CANTRELEASE_g = external global i64, align 8
@__func__.H5ES__wait_cb = private unnamed_addr constant [14 x i8] c"H5ES__wait_cb\00", align 1
@H5E_CANTWAIT_g = external global i64, align 8
@.str.21 = private unnamed_addr constant [25 x i8] c"unable to test operation\00", align 1
@.str.22 = private unnamed_addr constant [34 x i8] c"unable to release completed event\00", align 1
@H5E_BADVALUE_g = external global i64, align 8
@.str.23 = private unnamed_addr constant [45 x i8] c"received \22can't cancel\22 status for operation\00", align 1

; Function Attrs: nounwind uwtable
define internal i32 @H5ES__wait_cb(ptr noundef %0, ptr noundef %1) #0 {
  %3 = alloca ptr, align 8
  %4 = alloca ptr, align 8
  %5 = alloca ptr, align 8
  %6 = alloca i32, align 4
  %7 = alloca i64, align 8
  %8 = alloca i64, align 8
  %9 = alloca i32, align 4
  %10 = alloca i8, align 1
  store ptr %0, ptr %3, align 8, !tbaa !27
  store ptr %1, ptr %4, align 8, !tbaa !18
  call void @llvm.lifetime.start.p0(i64 8, ptr %5) #5
  %11 = load ptr, ptr %4, align 8, !tbaa !18
  store ptr %11, ptr %5, align 8, !tbaa !60
  call void @llvm.lifetime.start.p0(i64 4, ptr %6) #5
  store i32 1, ptr %6, align 4, !tbaa !3
  call void @llvm.lifetime.start.p0(i64 8, ptr %7) #5
  store i64 0, ptr %7, align 8, !tbaa !11
  call void @llvm.lifetime.start.p0(i64 8, ptr %8) #5
  store i64 0, ptr %8, align 8, !tbaa !11
  call void @llvm.lifetime.start.p0(i64 4, ptr %9) #5
  store i32 0, ptr %9, align 4, !tbaa !3
  call void @llvm.lifetime.start.p0(i64 1, ptr %10) #5
  store i8 0, ptr %10, align 1, !tbaa !7
  %12 = load i8, ptr @H5ES_init_g, align 1, !tbaa !7, !range !9, !noundef !10
  %13 = trunc i8 %12 to i1
  br i1 %13, label %18, label %14

14:                                               ; preds = %2
  %15 = load i8, ptr @H5_libterm_g, align 1, !tbaa !7, !range !9, !noundef !10
  %16 = trunc i8 %15 to i1
  %17 = xor i1 %16, true
  br label %18

18:                                               ; preds = %14, %2
  %19 = phi i1 [ true, %2 ], [ %17, %14 ]
  %20 = xor i1 %19, true
  %21 = xor i1 %20, true
  %22 = zext i1 %21 to i32
  %23 = sext i32 %22 to i64
  %24 = call i64 @llvm.expect.i64(i64 %23, i64 1)
  %25 = icmp ne i64 %24, 0
  br i1 %25, label %26, label %208

26:                                               ; preds = %18
  %27 = load ptr, ptr %5, align 8, !tbaa !60
  %28 = getelementptr inbounds nuw %struct.H5ES_wait_ctx_t, ptr %27, i32 0, i32 1
  %29 = load i64, ptr %28, align 8, !tbaa !57
  %30 = icmp ne i64 %29, 0
  br i1 %30, label %31, label %38

31:                                               ; preds = %26
  %32 = load ptr, ptr %5, align 8, !tbaa !60
  %33 = getelementptr inbounds nuw %struct.H5ES_wait_ctx_t, ptr %32, i32 0, i32 1
  %34 = load i64, ptr %33, align 8, !tbaa !57
  %35 = icmp ne i64 %34, -1
  br i1 %35, label %36, label %38

36:                                               ; preds = %31
  %37 = call i64 @H5_now_usec()
  store i64 %37, ptr %7, align 8, !tbaa !11
  br label %38

38:                                               ; preds = %36, %31, %26
  %39 = load ptr, ptr %3, align 8, !tbaa !27
  %40 = getelementptr inbounds nuw %struct.H5ES_event_t, ptr %39, i32 0, i32 0
  %41 = load ptr, ptr %40, align 8, !tbaa !52
  %42 = load ptr, ptr %5, align 8, !tbaa !60
  %43 = getelementptr inbounds nuw %struct.H5ES_wait_ctx_t, ptr %42, i32 0, i32 1
  %44 = load i64, ptr %43, align 8, !tbaa !57
  %45 = call i32 @H5VL_request_wait(ptr noundef %41, i64 noundef %44, ptr noundef %6)
  %46 = icmp slt i32 %45, 0
  br i1 %46, label %47, label %66

47:                                               ; preds = %38
  br label %48

48:                                               ; preds = %47
  br label %49

49:                                               ; preds = %48
  br label %50

50:                                               ; preds = %49
  %51 = load i64, ptr @H5E_EVENTSET_g, align 8, !tbaa !11
  %52 = load i64, ptr @H5E_CANTWAIT_g, align 8, !tbaa !11
  %53 = call i32 (ptr, ptr, i32, i64, i64, ptr, ...) @H5E_printf_stack(ptr noundef @.str, ptr noundef @__func__.H5ES__wait_cb, i32 noundef 673, i64 noundef %51, i64 noundef %52, ptr noundef @.str.21)
  br label %54

54:                                               ; preds = %50
  br label %55

55:                                               ; preds = %54
  store i8 1, ptr %10, align 1, !tbaa !7
  %56 = load i8, ptr %10, align 1, !tbaa !7, !range !9, !noundef !10
  %57 = trunc i8 %56 to i1
  %58 = zext i1 %57 to i8
  store i8 %58, ptr %10, align 1, !tbaa !7
  br label %59

59:                                               ; preds = %55
  br label %60

60:                                               ; preds = %59
  br label %61

61:                                               ; preds = %60
  store i32 -1, ptr %9, align 4, !tbaa !3
  br label %207

62:                                               ; No predecessors!
  br label %63

63:                                               ; preds = %62
  br label %64

64:                                               ; preds = %63
  br label %65

65:                                               ; preds = %64
  br label %66

66:                                               ; preds = %65, %38
  %67 = load ptr, ptr %5, align 8, !tbaa !60
  %68 = getelementptr inbounds nuw %struct.H5ES_wait_ctx_t, ptr %67, i32 0, i32 1
  %69 = load i64, ptr %68, align 8, !tbaa !57
  %70 = icmp ne i64 %69, 0
  br i1 %70, label %71, label %80

71:                                               ; preds = %66
  %72 = load ptr, ptr %5, align 8, !tbaa !60
  %73 = getelementptr inbounds nuw %struct.H5ES_wait_ctx_t, ptr %72, i32 0, i32 1
  %74 = load i64, ptr %73, align 8, !tbaa !57
  %75 = icmp ne i64 %74, -1
  br i1 %75, label %76, label %80

76:                                               ; preds = %71
  %77 = call i64 @H5_now_usec()
  %78 = load i64, ptr %7, align 8, !tbaa !11
  %79 = sub i64 %77, %78
  store i64 %79, ptr %8, align 8, !tbaa !11
  br label %80

80:                                               ; preds = %76, %71, %66
  %81 = load i32, ptr %6, align 4, !tbaa !3
  %82 = icmp eq i32 %81, 2
  br i1 %82, label %83, label %114

83:                                               ; preds = %80
  %84 = load ptr, ptr %5, align 8, !tbaa !60
  %85 = getelementptr inbounds nuw %struct.H5ES_wait_ctx_t, ptr %84, i32 0, i32 0
  %86 = load ptr, ptr %85, align 8, !tbaa !55
  %87 = load ptr, ptr %3, align 8, !tbaa !27
  %88 = load i32, ptr %6, align 4, !tbaa !3
  %89 = call i32 @H5ES__op_complete(ptr noundef %86, ptr noundef %87, i32 noundef %88)
  %90 = icmp slt i32 %89, 0
  br i1 %90, label %91, label %110

91:                                               ; preds = %83
  br label %92

92:                                               ; preds = %91
  br label %93

93:                                               ; preds = %92
  br label %94

94:                                               ; preds = %93
  %95 = load i64, ptr @H5E_EVENTSET_g, align 8, !tbaa !11
  %96 = load i64, ptr @H5E_CANTRELEASE_g, align 8, !tbaa !11
  %97 = call i32 (ptr, ptr, i32, i64, i64, ptr, ...) @H5E_printf_stack(ptr noundef @.str, ptr noundef @__func__.H5ES__wait_cb, i32 noundef 681, i64 noundef %95, i64 noundef %96, ptr noundef @.str.22)
  br label %98

98:                                               ; preds = %94
  br label %99

99:                                               ; preds = %98
  store i8 1, ptr %10, align 1, !tbaa !7
  %100 = load i8, ptr %10, align 1, !tbaa !7, !range !9, !noundef !10
  %101 = trunc i8 %100 to i1
  %102 = zext i1 %101 to i8
  store i8 %102, ptr %10, align 1, !tbaa !7
  br label %103

103:                                              ; preds = %99
  br label %104

104:                                              ; preds = %103
  br label %105

105:                                              ; preds = %104
  store i32 -1, ptr %9, align 4, !tbaa !3
  br label %207

106:                                              ; No predecessors!
  br label %107

107:                                              ; preds = %106
  br label %108

108:                                              ; preds = %107
  br label %109

109:                                              ; preds = %108
  br label %110

110:                                              ; preds = %109, %83
  %111 = load ptr, ptr %5, align 8, !tbaa !60
  %112 = getelementptr inbounds nuw %struct.H5ES_wait_ctx_t, ptr %111, i32 0, i32 3
  %113 = load ptr, ptr %112, align 8, !tbaa !59
  store i8 1, ptr %113, align 1, !tbaa !7
  store i32 1, ptr %9, align 4, !tbaa !3
  br label %178

114:                                              ; preds = %80
  %115 = load i32, ptr %6, align 4, !tbaa !3
  %116 = icmp eq i32 %115, 1
  br i1 %116, label %120, label %117

117:                                              ; preds = %114
  %118 = load i32, ptr %6, align 4, !tbaa !3
  %119 = icmp eq i32 %118, 4
  br i1 %119, label %120, label %148

120:                                              ; preds = %117, %114
  %121 = load ptr, ptr %5, align 8, !tbaa !60
  %122 = getelementptr inbounds nuw %struct.H5ES_wait_ctx_t, ptr %121, i32 0, i32 0
  %123 = load ptr, ptr %122, align 8, !tbaa !55
  %124 = load ptr, ptr %3, align 8, !tbaa !27
  %125 = load i32, ptr %6, align 4, !tbaa !3
  %126 = call i32 @H5ES__op_complete(ptr noundef %123, ptr noundef %124, i32 noundef %125)
  %127 = icmp slt i32 %126, 0
  br i1 %127, label %128, label %147

128:                                              ; preds = %120
  br label %129

129:                                              ; preds = %128
  br label %130

130:                                              ; preds = %129
  br label %131

131:                                              ; preds = %130
  %132 = load i64, ptr @H5E_EVENTSET_g, align 8, !tbaa !11
  %133 = load i64, ptr @H5E_CANTRELEASE_g, align 8, !tbaa !11
  %134 = call i32 (ptr, ptr, i32, i64, i64, ptr, ...) @H5E_printf_stack(ptr noundef @.str, ptr noundef @__func__.H5ES__wait_cb, i32 noundef 692, i64 noundef %132, i64 noundef %133, ptr noundef @.str.22)
  br label %135

135:                                              ; preds = %131
  br label %136

136:                                              ; preds = %135
  store i8 1, ptr %10, align 1, !tbaa !7
  %137 = load i8, ptr %10, align 1, !tbaa !7, !range !9, !noundef !10
  %138 = trunc i8 %137 to i1
  %139 = zext i1 %138 to i8
  store i8 %139, ptr %10, align 1, !tbaa !7
  br label %140

140:                                              ; preds = %136
  br label %141

141:                                              ; preds = %140
  br label %142

142:                                              ; preds = %141
  store i32 -1, ptr %9, align 4, !tbaa !3
  br label %207

143:                                              ; No predecessors!
  br label %144

144:                                              ; preds = %143
  br label %145

145:                                              ; preds = %144
  br label %146

146:                                              ; preds = %145
  br label %147

147:                                              ; preds = %146, %120
  br label %177

148:                                              ; preds = %117
  %149 = load i32, ptr %6, align 4, !tbaa !3
  %150 = icmp eq i32 %149, 3
  br i1 %150, label %151, label %170

151:                                              ; preds = %148
  br label %152

152:                                              ; preds = %151
  br label %153

153:                                              ; preds = %152
  br label %154

154:                                              ; preds = %153
  %155 = load i64, ptr @H5E_EVENTSET_g, align 8, !tbaa !11
  %156 = load i64, ptr @H5E_BADVALUE_g, align 8, !tbaa !11
  %157 = call i32 (ptr, ptr, i32, i64, i64, ptr, ...) @H5E_printf_stack(ptr noundef @.str, ptr noundef @__func__.H5ES__wait_cb, i32 noundef 697, i64 noundef %155, i64 noundef %156, ptr noundef @.str.23)
  br label %158

158:                                              ; preds = %154
  br label %159

159:                                              ; preds = %158
  store i8 1, ptr %10, align 1, !tbaa !7
  %160 = load i8, ptr %10, align 1, !tbaa !7, !range !9, !noundef !10
  %161 = trunc i8 %160 to i1
  %162 = zext i1 %161 to i8
  store i8 %162, ptr %10, align 1, !tbaa !7
  br label %163

163:                                              ; preds = %159
  br label %164

164:                                              ; preds = %163
  br label %165

165:                                              ; preds = %164
  store i32 -1, ptr %9, align 4, !tbaa !3
  br label %207

166:                                              ; No predecessors!
  br label %167

167:                                              ; preds = %166
  br label %168

168:                                              ; preds = %167
  br label %169

169:                                              ; preds = %168
  br label %176

170:                                              ; preds = %148
  %171 = load ptr, ptr %5, align 8, !tbaa !60
  %172 = getelementptr inbounds nuw %struct.H5ES_wait_ctx_t, ptr %171, i32 0, i32 2
  %173 = load ptr, ptr %172, align 8, !tbaa !58
  %174 = load i64, ptr %173, align 8, !tbaa !11
  %175 = add i64 %174, 1
  store i64 %175, ptr %173, align 8, !tbaa !11
  br label %176

176:                                              ; preds = %170, %169
  br label %177

177:                                              ; preds = %176, %147
  br label %178

178:                                              ; preds = %177, %110
  %179 = load ptr, ptr %5, align 8, !tbaa !60
  %180 = getelementptr inbounds nuw %struct.H5ES_wait_ctx_t, ptr %179, i32 0, i32 1
  %181 = load i64, ptr %180, align 8, !tbaa !57
  %182 = icmp ne i64 %181, 0
  br i1 %182, label %183, label %206

183:                                              ; preds = %178
  %184 = load ptr, ptr %5, align 8, !tbaa !60
  %185 = getelementptr inbounds nuw %struct.H5ES_wait_ctx_t, ptr %184, i32 0, i32 1
  %186 = load i64, ptr %185, align 8, !tbaa !57
  %187 = icmp ne i64 %186, -1
  br i1 %187, label %188, label %206

188:                                              ; preds = %183
  %189 = load i64, ptr %8, align 8, !tbaa !11
  %190 = mul i64 %189, 1000
  %191 = load ptr, ptr %5, align 8, !tbaa !60
  %192 = getelementptr inbounds nuw %struct.H5ES_wait_ctx_t, ptr %191, i32 0, i32 1
  %193 = load i64, ptr %192, align 8, !tbaa !57
  %194 = icmp ugt i64 %190, %193
  br i1 %194, label %195, label %198

195:                                              ; preds = %188
  %196 = load ptr, ptr %5, align 8, !tbaa !60
  %197 = getelementptr inbounds nuw %struct.H5ES_wait_ctx_t, ptr %196, i32 0, i32 1
  store i64 0, ptr %197, align 8, !tbaa !57
  br label %205

198:                                              ; preds = %188
  %199 = load i64, ptr %8, align 8, !tbaa !11
  %200 = mul i64 %199, 1000
  %201 = load ptr, ptr %5, align 8, !tbaa !60
  %202 = getelementptr inbounds nuw %struct.H5ES_wait_ctx_t, ptr %201, i32 0, i32 1
  %203 = load i64, ptr %202, align 8, !tbaa !57
  %204 = sub i64 %203, %200
  store i64 %204, ptr %202, align 8, !tbaa !57
  br label %205

205:                                              ; preds = %198, %195
  br label %206

206:                                              ; preds = %205, %183, %178
  br label %207

207:                                              ; preds = %206, %165, %142, %105, %61
  br label %208

208:                                              ; preds = %207, %18
  %209 = load i32, ptr %9, align 4, !tbaa !3
  call void @llvm.lifetime.end.p0(i64 1, ptr %10) #5
  call void @llvm.lifetime.end.p0(i64 4, ptr %9) #5
  call void @llvm.lifetime.end.p0(i64 8, ptr %8) #5
  call void @llvm.lifetime.end.p0(i64 8, ptr %7) #5
  call void @llvm.lifetime.end.p0(i64 4, ptr %6) #5
  call void @llvm.lifetime.end.p0(i64 8, ptr %5) #5
  ret i32 %209
}