; Function Attrs: nounwind uwtable
define internal range(i32 -1, 2) i32 @H5ES__wait_cb(ptr noundef %0, ptr noundef captures(none) %1) #0 {
  %3 = alloca i32, align 4
  call void @llvm.lifetime.start.p0(i64 4, ptr nonnull %3) #5
  store i32 1, ptr %3, align 4, !tbaa !20
  %4 = load i8, ptr @H5ES_init_g, align 1, !tbaa !3, !range !7, !noundef !8
  %5 = trunc nuw i8 %4 to i1
  %6 = load i8, ptr @H5_libterm_g, align 1, !range !7
  %7 = trunc nuw i8 %6 to i1
  %8 = xor i1 %7, true
  %9 = select i1 %5, i1 true, i1 %8
  br i1 %9, label %10, label %67, !prof !9

10:                                               ; preds = %2
  %11 = getelementptr inbounds nuw i8, ptr %1, i64 8
  %12 = load i64, ptr %11, align 8, !tbaa !47
  switch i64 %12, label %13 [
    i64 0, label %15
    i64 -1, label %15
  ]

13:                                               ; preds = %10
  %14 = tail call i64 @H5_now_usec() #5
  %.pre = load i64, ptr %11, align 8, !tbaa !47
  br label %15

15:                                               ; preds = %10, %10, %13
  %16 = phi i64 [ %.pre, %13 ], [ %12, %10 ], [ %12, %10 ]
  %.027 = phi i64 [ %14, %13 ], [ 0, %10 ], [ 0, %10 ]
  %17 = load ptr, ptr %0, align 8, !tbaa !41
  %18 = call i32 @H5VL_request_wait(ptr noundef %17, i64 noundef %16, ptr noundef nonnull %3) #5
  %19 = icmp slt i32 %18, 0
  br i1 %19, label %20, label %24

20:                                               ; preds = %15
  %21 = load i64, ptr @H5E_EVENTSET_g, align 8, !tbaa !10
  %22 = load i64, ptr @H5E_CANTWAIT_g, align 8, !tbaa !10
  %23 = call i32 (ptr, ptr, i32, i64, i64, ptr, ...) @H5E_printf_stack(ptr noundef nonnull @.str, ptr noundef nonnull @__func__.H5ES__wait_cb, i32 noundef 673, i64 noundef %21, i64 noundef %22, ptr noundef nonnull @.str.21) #5
  br label %67

24:                                               ; preds = %15
  %25 = load i64, ptr %11, align 8, !tbaa !47
  switch i64 %25, label %26 [
    i64 0, label %30
    i64 -1, label %30
  ]

26:                                               ; preds = %24
  %27 = call i64 @H5_now_usec() #5
  %28 = sub i64 %27, %.027
  %29 = mul i64 %28, 1000
  br label %30

30:                                               ; preds = %24, %24, %26
  %.026 = phi i64 [ %29, %26 ], [ 0, %24 ], [ 0, %24 ]
  %31 = load i32, ptr %3, align 4, !tbaa !20
  switch i32 %31, label %55 [
    i32 2, label %32
    i32 4, label %43
    i32 1, label %43
    i32 3, label %51
  ]

32:                                               ; preds = %30
  %33 = load ptr, ptr %1, align 8, !tbaa !43
  %34 = call fastcc i32 @H5ES__op_complete(ptr noundef %33, ptr noundef nonnull %0, i32 noundef 2)
  %35 = icmp slt i32 %34, 0
  br i1 %35, label %36, label %40

36:                                               ; preds = %32
  %37 = load i64, ptr @H5E_EVENTSET_g, align 8, !tbaa !10
  %38 = load i64, ptr @H5E_CANTRELEASE_g, align 8, !tbaa !10
  %39 = call i32 (ptr, ptr, i32, i64, i64, ptr, ...) @H5E_printf_stack(ptr noundef nonnull @.str, ptr noundef nonnull @__func__.H5ES__wait_cb, i32 noundef 681, i64 noundef %37, i64 noundef %38, ptr noundef nonnull @.str.22) #5
  br label %67

40:                                               ; preds = %32
  %41 = getelementptr inbounds nuw i8, ptr %1, i64 24
  %42 = load ptr, ptr %41, align 8, !tbaa !49
  store i8 1, ptr %42, align 1, !tbaa !3
  br label %60

43:                                               ; preds = %30, %30
  %44 = load ptr, ptr %1, align 8, !tbaa !43
  %45 = call fastcc i32 @H5ES__op_complete(ptr noundef %44, ptr noundef nonnull %0, i32 noundef %31)
  %46 = icmp slt i32 %45, 0
  br i1 %46, label %47, label %60

47:                                               ; preds = %43
  %48 = load i64, ptr @H5E_EVENTSET_g, align 8, !tbaa !10
  %49 = load i64, ptr @H5E_CANTRELEASE_g, align 8, !tbaa !10
  %50 = call i32 (ptr, ptr, i32, i64, i64, ptr, ...) @H5E_printf_stack(ptr noundef nonnull @.str, ptr noundef nonnull @__func__.H5ES__wait_cb, i32 noundef 692, i64 noundef %48, i64 noundef %49, ptr noundef nonnull @.str.22) #5
  br label %67

51:                                               ; preds = %30
  %52 = load i64, ptr @H5E_EVENTSET_g, align 8, !tbaa !10
  %53 = load i64, ptr @H5E_BADVALUE_g, align 8, !tbaa !10
  %54 = call i32 (ptr, ptr, i32, i64, i64, ptr, ...) @H5E_printf_stack(ptr noundef nonnull @.str, ptr noundef nonnull @__func__.H5ES__wait_cb, i32 noundef 697, i64 noundef %52, i64 noundef %53, ptr noundef nonnull @.str.23) #5
  br label %67

55:                                               ; preds = %30
  %56 = getelementptr inbounds nuw i8, ptr %1, i64 16
  %57 = load ptr, ptr %56, align 8, !tbaa !48
  %58 = load i64, ptr %57, align 8, !tbaa !10
  %59 = add i64 %58, 1
  store i64 %59, ptr %57, align 8, !tbaa !10
  br label %60

60:                                               ; preds = %55, %43, %40
  %.1 = phi i32 [ 1, %40 ], [ 0, %43 ], [ 0, %55 ]
  %61 = load i64, ptr %11, align 8, !tbaa !47
  switch i64 %61, label %62 [
    i64 0, label %67
    i64 -1, label %67
  ]

62:                                               ; preds = %60
  %63 = icmp ugt i64 %.026, %61
  br i1 %63, label %64, label %65

64:                                               ; preds = %62
  store i64 0, ptr %11, align 8, !tbaa !47
  br label %67

65:                                               ; preds = %62
  %66 = sub nuw i64 %61, %.026
  store i64 %66, ptr %11, align 8, !tbaa !47
  br label %67

67:                                               ; preds = %60, %60, %20, %36, %47, %51, %64, %65, %2
  %.0 = phi i32 [ -1, %20 ], [ -1, %36 ], [ %.1, %64 ], [ %.1, %65 ], [ %.1, %60 ], [ -1, %47 ], [ -1, %51 ], [ 0, %2 ], [ %.1, %60 ]
  call void @llvm.lifetime.end.p0(i64 4, ptr nonnull %3) #5
  ret i32 %.0
}